Archive member included to satisfy reference by file (symbol)

build/lib/Release\librcc.a(rcc.o)
                              build/Release/main.o (rcc_sysclk_select)
build/lib/Release\libflash.a(flash.o)
                              build/lib/Release\librcc.a(rcc.o) (flash_acr_config_auto)
build/lib/Release\libdelay.a(delay.o)
                              build/lib/Release\librcc.a(rcc.o) (delay_init)
e:/david/documents/megasync/trabajo/stm/.dspboardsdk/gcc/bin/../lib/gcc/arm-none-eabi/10.3.1/../../../../arm-none-eabi/lib/thumb/v7e-m+fp/hard\libc_nano.a(lib_a-exit.o)
                              e:/david/documents/megasync/trabajo/stm/.dspboardsdk/gcc/bin/../lib/gcc/arm-none-eabi/10.3.1/../../../../arm-none-eabi/lib/thumb/v7e-m+fp/hard/crt0.o (exit)
e:/david/documents/megasync/trabajo/stm/.dspboardsdk/gcc/bin/../lib/gcc/arm-none-eabi/10.3.1/../../../../arm-none-eabi/lib/thumb/v7e-m+fp/hard\libc_nano.a(lib_a-impure.o)
                              e:/david/documents/megasync/trabajo/stm/.dspboardsdk/gcc/bin/../lib/gcc/arm-none-eabi/10.3.1/../../../../arm-none-eabi/lib/thumb/v7e-m+fp/hard\libc_nano.a(lib_a-exit.o) (_global_impure_ptr)
e:/david/documents/megasync/trabajo/stm/.dspboardsdk/gcc/bin/../lib/gcc/arm-none-eabi/10.3.1/../../../../arm-none-eabi/lib/thumb/v7e-m+fp/hard\libc_nano.a(lib_a-init.o)
                              e:/david/documents/megasync/trabajo/stm/.dspboardsdk/gcc/bin/../lib/gcc/arm-none-eabi/10.3.1/../../../../arm-none-eabi/lib/thumb/v7e-m+fp/hard/crt0.o (__libc_init_array)
e:/david/documents/megasync/trabajo/stm/.dspboardsdk/gcc/bin/../lib/gcc/arm-none-eabi/10.3.1/../../../../arm-none-eabi/lib/thumb/v7e-m+fp/hard\libc_nano.a(lib_a-memset.o)
                              e:/david/documents/megasync/trabajo/stm/.dspboardsdk/gcc/bin/../lib/gcc/arm-none-eabi/10.3.1/../../../../arm-none-eabi/lib/thumb/v7e-m+fp/hard/crt0.o (memset)
e:/david/documents/megasync/trabajo/stm/.dspboardsdk/gcc/bin/../lib/gcc/arm-none-eabi/10.3.1/../../../../arm-none-eabi/lib/thumb/v7e-m+fp/hard\libnosys.a(_exit.o)
                              e:/david/documents/megasync/trabajo/stm/.dspboardsdk/gcc/bin/../lib/gcc/arm-none-eabi/10.3.1/../../../../arm-none-eabi/lib/thumb/v7e-m+fp/hard\libc_nano.a(lib_a-exit.o) (_exit)

Discarded input sections

 .text          0x00000000        0x0 e:/david/documents/megasync/trabajo/stm/.dspboardsdk/gcc/bin/../lib/gcc/arm-none-eabi/10.3.1/thumb/v7e-m+fp/hard/crti.o
 .data          0x00000000        0x0 e:/david/documents/megasync/trabajo/stm/.dspboardsdk/gcc/bin/../lib/gcc/arm-none-eabi/10.3.1/thumb/v7e-m+fp/hard/crti.o
 .bss           0x00000000        0x0 e:/david/documents/megasync/trabajo/stm/.dspboardsdk/gcc/bin/../lib/gcc/arm-none-eabi/10.3.1/thumb/v7e-m+fp/hard/crti.o
 .data          0x00000000        0x4 e:/david/documents/megasync/trabajo/stm/.dspboardsdk/gcc/bin/../lib/gcc/arm-none-eabi/10.3.1/thumb/v7e-m+fp/hard/crtbegin.o
 .rodata        0x00000000       0x24 e:/david/documents/megasync/trabajo/stm/.dspboardsdk/gcc/bin/../lib/gcc/arm-none-eabi/10.3.1/thumb/v7e-m+fp/hard/crtbegin.o
 .text          0x00000000       0x7c e:/david/documents/megasync/trabajo/stm/.dspboardsdk/gcc/bin/../lib/gcc/arm-none-eabi/10.3.1/../../../../arm-none-eabi/lib/thumb/v7e-m+fp/hard/crt0.o
 .data          0x00000000        0x0 e:/david/documents/megasync/trabajo/stm/.dspboardsdk/gcc/bin/../lib/gcc/arm-none-eabi/10.3.1/../../../../arm-none-eabi/lib/thumb/v7e-m+fp/hard/crt0.o
 .bss           0x00000000        0x0 e:/david/documents/megasync/trabajo/stm/.dspboardsdk/gcc/bin/../lib/gcc/arm-none-eabi/10.3.1/../../../../arm-none-eabi/lib/thumb/v7e-m+fp/hard/crt0.o
 .ARM.extab     0x00000000        0x0 e:/david/documents/megasync/trabajo/stm/.dspboardsdk/gcc/bin/../lib/gcc/arm-none-eabi/10.3.1/../../../../arm-none-eabi/lib/thumb/v7e-m+fp/hard/crt0.o
 .ARM.exidx     0x00000000       0x10 e:/david/documents/megasync/trabajo/stm/.dspboardsdk/gcc/bin/../lib/gcc/arm-none-eabi/10.3.1/../../../../arm-none-eabi/lib/thumb/v7e-m+fp/hard/crt0.o
 .ARM.attributes
                0x00000000       0x1c e:/david/documents/megasync/trabajo/stm/.dspboardsdk/gcc/bin/../lib/gcc/arm-none-eabi/10.3.1/../../../../arm-none-eabi/lib/thumb/v7e-m+fp/hard/crt0.o
 .text          0x00000000        0x0 build/Release/system_stm32f4xx.o
 .data          0x00000000        0x0 build/Release/system_stm32f4xx.o
 .bss           0x00000000        0x0 build/Release/system_stm32f4xx.o
 .rodata.APBPrescTable
                0x00000000        0x8 build/Release/system_stm32f4xx.o
 .text          0x00000000        0x0 build/Release/main.o
 .data          0x00000000        0x0 build/Release/main.o
 .bss           0x00000000        0x0 build/Release/main.o
 .text          0x00000000       0x28 build/Release/startup_stm32f407xx.o
 .data          0x00000000        0x0 build/Release/startup_stm32f407xx.o
 .bss           0x00000000        0x0 build/Release/startup_stm32f407xx.o
 .text          0x00000000        0x0 build/lib/Release\librcc.a(rcc.o)
 .data          0x00000000        0x0 build/lib/Release\librcc.a(rcc.o)
 .bss           0x00000000        0x0 build/lib/Release\librcc.a(rcc.o)
 .text          0x00000000        0x0 build/lib/Release\libflash.a(flash.o)
 .data          0x00000000        0x0 build/lib/Release\libflash.a(flash.o)
 .bss           0x00000000        0x0 build/lib/Release\libflash.a(flash.o)
 .text          0x00000000        0x0 build/lib/Release\libdelay.a(delay.o)
 .data          0x00000000        0x0 build/lib/Release\libdelay.a(delay.o)
 .bss           0x00000000        0x0 build/lib/Release\libdelay.a(delay.o)
 .text          0x00000000        0x0 e:/david/documents/megasync/trabajo/stm/.dspboardsdk/gcc/bin/../lib/gcc/arm-none-eabi/10.3.1/../../../../arm-none-eabi/lib/thumb/v7e-m+fp/hard\libc_nano.a(lib_a-exit.o)
 .data          0x00000000        0x0 e:/david/documents/megasync/trabajo/stm/.dspboardsdk/gcc/bin/../lib/gcc/arm-none-eabi/10.3.1/../../../../arm-none-eabi/lib/thumb/v7e-m+fp/hard\libc_nano.a(lib_a-exit.o)
 .bss           0x00000000        0x0 e:/david/documents/megasync/trabajo/stm/.dspboardsdk/gcc/bin/../lib/gcc/arm-none-eabi/10.3.1/../../../../arm-none-eabi/lib/thumb/v7e-m+fp/hard\libc_nano.a(lib_a-exit.o)
 .text.exit     0x00000000       0x28 e:/david/documents/megasync/trabajo/stm/.dspboardsdk/gcc/bin/../lib/gcc/arm-none-eabi/10.3.1/../../../../arm-none-eabi/lib/thumb/v7e-m+fp/hard\libc_nano.a(lib_a-exit.o)
 .debug_frame   0x00000000       0x28 e:/david/documents/megasync/trabajo/stm/.dspboardsdk/gcc/bin/../lib/gcc/arm-none-eabi/10.3.1/../../../../arm-none-eabi/lib/thumb/v7e-m+fp/hard\libc_nano.a(lib_a-exit.o)
 .ARM.attributes
                0x00000000       0x34 e:/david/documents/megasync/trabajo/stm/.dspboardsdk/gcc/bin/../lib/gcc/arm-none-eabi/10.3.1/../../../../arm-none-eabi/lib/thumb/v7e-m+fp/hard\libc_nano.a(lib_a-exit.o)
 .text          0x00000000        0x0 e:/david/documents/megasync/trabajo/stm/.dspboardsdk/gcc/bin/../lib/gcc/arm-none-eabi/10.3.1/../../../../arm-none-eabi/lib/thumb/v7e-m+fp/hard\libc_nano.a(lib_a-impure.o)
 .data          0x00000000        0x0 e:/david/documents/megasync/trabajo/stm/.dspboardsdk/gcc/bin/../lib/gcc/arm-none-eabi/10.3.1/../../../../arm-none-eabi/lib/thumb/v7e-m+fp/hard\libc_nano.a(lib_a-impure.o)
 .bss           0x00000000        0x0 e:/david/documents/megasync/trabajo/stm/.dspboardsdk/gcc/bin/../lib/gcc/arm-none-eabi/10.3.1/../../../../arm-none-eabi/lib/thumb/v7e-m+fp/hard\libc_nano.a(lib_a-impure.o)
 .data._impure_ptr
                0x00000000        0x4 e:/david/documents/megasync/trabajo/stm/.dspboardsdk/gcc/bin/../lib/gcc/arm-none-eabi/10.3.1/../../../../arm-none-eabi/lib/thumb/v7e-m+fp/hard\libc_nano.a(lib_a-impure.o)
 .data.impure_data
                0x00000000       0x60 e:/david/documents/megasync/trabajo/stm/.dspboardsdk/gcc/bin/../lib/gcc/arm-none-eabi/10.3.1/../../../../arm-none-eabi/lib/thumb/v7e-m+fp/hard\libc_nano.a(lib_a-impure.o)
 .rodata._global_impure_ptr
                0x00000000        0x4 e:/david/documents/megasync/trabajo/stm/.dspboardsdk/gcc/bin/../lib/gcc/arm-none-eabi/10.3.1/../../../../arm-none-eabi/lib/thumb/v7e-m+fp/hard\libc_nano.a(lib_a-impure.o)
 .ARM.attributes
                0x00000000       0x34 e:/david/documents/megasync/trabajo/stm/.dspboardsdk/gcc/bin/../lib/gcc/arm-none-eabi/10.3.1/../../../../arm-none-eabi/lib/thumb/v7e-m+fp/hard\libc_nano.a(lib_a-impure.o)
 .text          0x00000000        0x0 e:/david/documents/megasync/trabajo/stm/.dspboardsdk/gcc/bin/../lib/gcc/arm-none-eabi/10.3.1/../../../../arm-none-eabi/lib/thumb/v7e-m+fp/hard\libc_nano.a(lib_a-init.o)
 .data          0x00000000        0x0 e:/david/documents/megasync/trabajo/stm/.dspboardsdk/gcc/bin/../lib/gcc/arm-none-eabi/10.3.1/../../../../arm-none-eabi/lib/thumb/v7e-m+fp/hard\libc_nano.a(lib_a-init.o)
 .bss           0x00000000        0x0 e:/david/documents/megasync/trabajo/stm/.dspboardsdk/gcc/bin/../lib/gcc/arm-none-eabi/10.3.1/../../../../arm-none-eabi/lib/thumb/v7e-m+fp/hard\libc_nano.a(lib_a-init.o)
 .text          0x00000000        0x0 e:/david/documents/megasync/trabajo/stm/.dspboardsdk/gcc/bin/../lib/gcc/arm-none-eabi/10.3.1/../../../../arm-none-eabi/lib/thumb/v7e-m+fp/hard\libc_nano.a(lib_a-memset.o)
 .data          0x00000000        0x0 e:/david/documents/megasync/trabajo/stm/.dspboardsdk/gcc/bin/../lib/gcc/arm-none-eabi/10.3.1/../../../../arm-none-eabi/lib/thumb/v7e-m+fp/hard\libc_nano.a(lib_a-memset.o)
 .bss           0x00000000        0x0 e:/david/documents/megasync/trabajo/stm/.dspboardsdk/gcc/bin/../lib/gcc/arm-none-eabi/10.3.1/../../../../arm-none-eabi/lib/thumb/v7e-m+fp/hard\libc_nano.a(lib_a-memset.o)
 .text.memset   0x00000000       0x10 e:/david/documents/megasync/trabajo/stm/.dspboardsdk/gcc/bin/../lib/gcc/arm-none-eabi/10.3.1/../../../../arm-none-eabi/lib/thumb/v7e-m+fp/hard\libc_nano.a(lib_a-memset.o)
 .debug_frame   0x00000000       0x20 e:/david/documents/megasync/trabajo/stm/.dspboardsdk/gcc/bin/../lib/gcc/arm-none-eabi/10.3.1/../../../../arm-none-eabi/lib/thumb/v7e-m+fp/hard\libc_nano.a(lib_a-memset.o)
 .ARM.attributes
                0x00000000       0x34 e:/david/documents/megasync/trabajo/stm/.dspboardsdk/gcc/bin/../lib/gcc/arm-none-eabi/10.3.1/../../../../arm-none-eabi/lib/thumb/v7e-m+fp/hard\libc_nano.a(lib_a-memset.o)
 .text          0x00000000        0x0 e:/david/documents/megasync/trabajo/stm/.dspboardsdk/gcc/bin/../lib/gcc/arm-none-eabi/10.3.1/../../../../arm-none-eabi/lib/thumb/v7e-m+fp/hard\libnosys.a(_exit.o)
 .data          0x00000000        0x0 e:/david/documents/megasync/trabajo/stm/.dspboardsdk/gcc/bin/../lib/gcc/arm-none-eabi/10.3.1/../../../../arm-none-eabi/lib/thumb/v7e-m+fp/hard\libnosys.a(_exit.o)
 .bss           0x00000000        0x0 e:/david/documents/megasync/trabajo/stm/.dspboardsdk/gcc/bin/../lib/gcc/arm-none-eabi/10.3.1/../../../../arm-none-eabi/lib/thumb/v7e-m+fp/hard\libnosys.a(_exit.o)
 .text._exit    0x00000000        0x4 e:/david/documents/megasync/trabajo/stm/.dspboardsdk/gcc/bin/../lib/gcc/arm-none-eabi/10.3.1/../../../../arm-none-eabi/lib/thumb/v7e-m+fp/hard\libnosys.a(_exit.o)
 .debug_frame   0x00000000       0x20 e:/david/documents/megasync/trabajo/stm/.dspboardsdk/gcc/bin/../lib/gcc/arm-none-eabi/10.3.1/../../../../arm-none-eabi/lib/thumb/v7e-m+fp/hard\libnosys.a(_exit.o)
 .ARM.attributes
                0x00000000       0x34 e:/david/documents/megasync/trabajo/stm/.dspboardsdk/gcc/bin/../lib/gcc/arm-none-eabi/10.3.1/../../../../arm-none-eabi/lib/thumb/v7e-m+fp/hard\libnosys.a(_exit.o)
 .text          0x00000000        0x0 e:/david/documents/megasync/trabajo/stm/.dspboardsdk/gcc/bin/../lib/gcc/arm-none-eabi/10.3.1/thumb/v7e-m+fp/hard/crtend.o
 .data          0x00000000        0x0 e:/david/documents/megasync/trabajo/stm/.dspboardsdk/gcc/bin/../lib/gcc/arm-none-eabi/10.3.1/thumb/v7e-m+fp/hard/crtend.o
 .bss           0x00000000        0x0 e:/david/documents/megasync/trabajo/stm/.dspboardsdk/gcc/bin/../lib/gcc/arm-none-eabi/10.3.1/thumb/v7e-m+fp/hard/crtend.o
 .rodata        0x00000000       0x24 e:/david/documents/megasync/trabajo/stm/.dspboardsdk/gcc/bin/../lib/gcc/arm-none-eabi/10.3.1/thumb/v7e-m+fp/hard/crtend.o
 .eh_frame      0x00000000        0x4 e:/david/documents/megasync/trabajo/stm/.dspboardsdk/gcc/bin/../lib/gcc/arm-none-eabi/10.3.1/thumb/v7e-m+fp/hard/crtend.o
 .ARM.attributes
                0x00000000       0x34 e:/david/documents/megasync/trabajo/stm/.dspboardsdk/gcc/bin/../lib/gcc/arm-none-eabi/10.3.1/thumb/v7e-m+fp/hard/crtend.o
 .text          0x00000000        0x0 e:/david/documents/megasync/trabajo/stm/.dspboardsdk/gcc/bin/../lib/gcc/arm-none-eabi/10.3.1/thumb/v7e-m+fp/hard/crtn.o
 .data          0x00000000        0x0 e:/david/documents/megasync/trabajo/stm/.dspboardsdk/gcc/bin/../lib/gcc/arm-none-eabi/10.3.1/thumb/v7e-m+fp/hard/crtn.o
 .bss           0x00000000        0x0 e:/david/documents/megasync/trabajo/stm/.dspboardsdk/gcc/bin/../lib/gcc/arm-none-eabi/10.3.1/thumb/v7e-m+fp/hard/crtn.o

Memory Configuration

Name             Origin             Length             Attributes
FLASH            0x08000000         0x00080000         xr
RAM              0x20000000         0x00020000         xrw
CCMRAM           0x10000000         0x00010000         xrw
BRAM             0x40024000         0x00001000         rw
*default*        0x00000000         0xffffffff

Linker script and memory map

LOAD e:/david/documents/megasync/trabajo/stm/.dspboardsdk/gcc/bin/../lib/gcc/arm-none-eabi/10.3.1/thumb/v7e-m+fp/hard/crti.o
LOAD e:/david/documents/megasync/trabajo/stm/.dspboardsdk/gcc/bin/../lib/gcc/arm-none-eabi/10.3.1/thumb/v7e-m+fp/hard/crtbegin.o
LOAD e:/david/documents/megasync/trabajo/stm/.dspboardsdk/gcc/bin/../lib/gcc/arm-none-eabi/10.3.1/../../../../arm-none-eabi/lib/thumb/v7e-m+fp/hard/crt0.o
LOAD build/Release/system_stm32f4xx.o
LOAD build/Release/main.o
LOAD build/Release/startup_stm32f407xx.o
LOAD build/lib/Release\libgpio.a
LOAD build/lib/Release\librcc.a
LOAD build/lib/Release\libflash.a
LOAD build/lib/Release\libdelay.a
LOAD e:/david/documents/megasync/trabajo/stm/.dspboardsdk/gcc/bin/../lib/gcc/arm-none-eabi/10.3.1/../../../../arm-none-eabi/lib/thumb/v7e-m+fp/hard\libc_nano.a
LOAD e:/david/documents/megasync/trabajo/stm/.dspboardsdk/gcc/bin/../lib/gcc/arm-none-eabi/10.3.1/../../../../arm-none-eabi/lib/thumb/v7e-m+fp/hard\libm.a
LOAD e:/david/documents/megasync/trabajo/stm/.dspboardsdk/gcc/bin/../lib/gcc/arm-none-eabi/10.3.1/../../../../arm-none-eabi/lib/thumb/v7e-m+fp/hard\libnosys.a
START GROUP
LOAD e:/david/documents/megasync/trabajo/stm/.dspboardsdk/gcc/bin/../lib/gcc/arm-none-eabi/10.3.1/thumb/v7e-m+fp/hard\libgcc.a
LOAD e:/david/documents/megasync/trabajo/stm/.dspboardsdk/gcc/bin/../lib/gcc/arm-none-eabi/10.3.1/../../../../arm-none-eabi/lib/thumb/v7e-m+fp/hard\libc_nano.a
END GROUP
START GROUP
LOAD e:/david/documents/megasync/trabajo/stm/.dspboardsdk/gcc/bin/../lib/gcc/arm-none-eabi/10.3.1/thumb/v7e-m+fp/hard\libgcc.a
LOAD e:/david/documents/megasync/trabajo/stm/.dspboardsdk/gcc/bin/../lib/gcc/arm-none-eabi/10.3.1/../../../../arm-none-eabi/lib/thumb/v7e-m+fp/hard\libc_nano.a
LOAD e:/david/documents/megasync/trabajo/stm/.dspboardsdk/gcc/bin/../lib/gcc/arm-none-eabi/10.3.1/../../../../arm-none-eabi/lib/thumb/v7e-m+fp/hard\libnosys.a
END GROUP
START GROUP
LOAD e:/david/documents/megasync/trabajo/stm/.dspboardsdk/gcc/bin/../lib/gcc/arm-none-eabi/10.3.1/thumb/v7e-m+fp/hard\libgcc.a
LOAD e:/david/documents/megasync/trabajo/stm/.dspboardsdk/gcc/bin/../lib/gcc/arm-none-eabi/10.3.1/../../../../arm-none-eabi/lib/thumb/v7e-m+fp/hard\libc_nano.a
LOAD e:/david/documents/megasync/trabajo/stm/.dspboardsdk/gcc/bin/../lib/gcc/arm-none-eabi/10.3.1/../../../../arm-none-eabi/lib/thumb/v7e-m+fp/hard\libnosys.a
END GROUP
LOAD e:/david/documents/megasync/trabajo/stm/.dspboardsdk/gcc/bin/../lib/gcc/arm-none-eabi/10.3.1/thumb/v7e-m+fp/hard/crtend.o
LOAD e:/david/documents/megasync/trabajo/stm/.dspboardsdk/gcc/bin/../lib/gcc/arm-none-eabi/10.3.1/thumb/v7e-m+fp/hard/crtn.o
                0x20020000                _estack = (ORIGIN (RAM) + LENGTH (RAM))
                0x00000000                _Min_Heap_Size = 0x0
                0x00000400                _Min_Stack_Size = 0x400

.isr_vector     0x08000000      0x1a8
                0x08000000                . = ALIGN (0x4)
 *(.isr_vector)
 .isr_vector    0x08000000      0x1a8 build/Release/startup_stm32f407xx.o
                0x08000000                g_pfnVectors
                0x080001a8                . = ALIGN (0x4)

.text           0x080001a8      0x5dc
                0x080001a8                . = ALIGN (0x4)
 *(.text)
 .text          0x080001a8       0x40 e:/david/documents/megasync/trabajo/stm/.dspboardsdk/gcc/bin/../lib/gcc/arm-none-eabi/10.3.1/thumb/v7e-m+fp/hard/crtbegin.o
 *(.text*)
 .text.SystemInit
                0x080001e8       0x14 build/Release/system_stm32f4xx.o
                0x080001e8                SystemInit
 .text.SystemCoreClockUpdate
                0x080001fc       0x70 build/Release/system_stm32f4xx.o
                0x080001fc                SystemCoreClockUpdate
 .text.startup.main
                0x0800026c       0x9c build/Release/main.o
                0x0800026c                main
 .text.Reset_Handler
                0x08000308       0x8c build/Release/startup_stm32f407xx.o
                0x08000308                Reset_Handler
 .text.Default_Handler
                0x08000394        0x2 build/Release/startup_stm32f407xx.o
                0x08000394                RTC_Alarm_IRQHandler
                0x08000394                HASH_RNG_IRQHandler
                0x08000394                EXTI2_IRQHandler
                0x08000394                TIM8_CC_IRQHandler
                0x08000394                DebugMon_Handler
                0x08000394                TIM1_CC_IRQHandler
                0x08000394                DMA2_Stream5_IRQHandler
                0x08000394                HardFault_Handler
                0x08000394                DMA1_Stream5_IRQHandler
                0x08000394                SysTick_Handler
                0x08000394                PVD_IRQHandler
                0x08000394                SDIO_IRQHandler
                0x08000394                TAMP_STAMP_IRQHandler
                0x08000394                PendSV_Handler
                0x08000394                NMI_Handler
                0x08000394                CAN2_RX1_IRQHandler
                0x08000394                EXTI3_IRQHandler
                0x08000394                TIM8_TRG_COM_TIM14_IRQHandler
                0x08000394                TIM1_UP_TIM10_IRQHandler
                0x08000394                TIM8_UP_TIM13_IRQHandler
                0x08000394                I2C3_ER_IRQHandler
                0x08000394                LCD_TFT_IRQHandler
                0x08000394                EXTI0_IRQHandler
                0x08000394                I2C2_EV_IRQHandler
                0x08000394                DMA1_Stream2_IRQHandler
                0x08000394                CAN1_RX0_IRQHandler
                0x08000394                FPU_IRQHandler
                0x08000394                OTG_HS_WKUP_IRQHandler
                0x08000394                UsageFault_Handler
                0x08000394                CAN2_SCE_IRQHandler
                0x08000394                DMA2_Stream2_IRQHandler
                0x08000394                SPI1_IRQHandler
                0x08000394                TIM6_DAC_IRQHandler
                0x08000394                TIM1_BRK_TIM9_IRQHandler
                0x08000394                DCMI_IRQHandler
                0x08000394                CAN2_RX0_IRQHandler
                0x08000394                DMA2_Stream3_IRQHandler
                0x08000394                USART6_IRQHandler
                0x08000394                USART3_IRQHandler
                0x08000394                CRYP_IRQHandler
                0x08000394                CAN1_RX1_IRQHandler
                0x08000394                UART5_IRQHandler
                0x08000394                DMA2_Stream0_IRQHandler
                0x08000394                TIM4_IRQHandler
                0x08000394                I2C1_EV_IRQHandler
                0x08000394                DMA1_Stream6_IRQHandler
                0x08000394                DMA1_Stream1_IRQHandler
                0x08000394                UART4_IRQHandler
                0x08000394                LCD_TFT_1_IRQHandler
                0x08000394                TIM3_IRQHandler
                0x08000394                RCC_IRQHandler
                0x08000394                TIM8_BRK_TIM12_IRQHandler
                0x08000394                Default_Handler
                0x08000394                EXTI15_10_IRQHandler
                0x08000394                ADC_IRQHandler
                0x08000394                DMA1_Stream7_IRQHandler
                0x08000394                TIM7_IRQHandler
                0x08000394                CAN2_TX_IRQHandler
                0x08000394                TIM5_IRQHandler
                0x08000394                DMA2_Stream7_IRQHandler
                0x08000394                I2C3_EV_IRQHandler
                0x08000394                EXTI9_5_IRQHandler
                0x08000394                RTC_WKUP_IRQHandler
                0x08000394                ETH_WKUP_IRQHandler
                0x08000394                SPI2_IRQHandler
                0x08000394                OTG_HS_EP1_IN_IRQHandler
                0x08000394                MemManage_Handler
                0x08000394                DMA1_Stream0_IRQHandler
                0x08000394                CAN1_TX_IRQHandler
                0x08000394                SVC_Handler
                0x08000394                EXTI4_IRQHandler
                0x08000394                FSMC_IRQHandler
                0x08000394                ETH_IRQHandler
                0x08000394                OTG_HS_EP1_OUT_IRQHandler
                0x08000394                WWDG_IRQHandler
                0x08000394                TIM2_IRQHandler
                0x08000394                OTG_FS_WKUP_IRQHandler
                0x08000394                TIM1_TRG_COM_TIM11_IRQHandler
                0x08000394                OTG_HS_IRQHandler
                0x08000394                EXTI1_IRQHandler
                0x08000394                USART2_IRQHandler
                0x08000394                I2C2_ER_IRQHandler
                0x08000394                DMA2_Stream1_IRQHandler
                0x08000394                CAN1_SCE_IRQHandler
                0x08000394                DMA2_Stream4_IRQHandler
                0x08000394                BusFault_Handler
                0x08000394                USART1_IRQHandler
                0x08000394                OTG_FS_IRQHandler
                0x08000394                SPI3_IRQHandler
                0x08000394                DMA1_Stream4_IRQHandler
                0x08000394                I2C1_ER_IRQHandler
                0x08000394                DMA2_Stream6_IRQHandler
                0x08000394                DMA1_Stream3_IRQHandler
 *fill*         0x08000396        0x2 
 .text.rcc_sysclk_select
                0x08000398      0x138 build/lib/Release\librcc.a(rcc.o)
                0x08000398                rcc_sysclk_select
 .text.rcc_pll_param_cpte
                0x080004d0       0xd8 build/lib/Release\librcc.a(rcc.o)
                0x080004d0                rcc_pll_param_cpte
 .text.rcc_pll_param_set
                0x080005a8       0x44 build/lib/Release\librcc.a(rcc.o)
                0x080005a8                rcc_pll_param_set
 .text.rcc_pll_param_clr
                0x080005ec       0x14 build/lib/Release\librcc.a(rcc.o)
                0x080005ec                rcc_pll_param_clr
 .text.flash_acr_config_auto
                0x08000600       0xd0 build/lib/Release\libflash.a(flash.o)
                0x08000600                flash_acr_config_auto
 .text.delay_init
                0x080006d0       0x3c build/lib/Release\libdelay.a(delay.o)
                0x080006d0                delay_init
 .text.delay_ms
                0x0800070c       0x18 build/lib/Release\libdelay.a(delay.o)
                0x0800070c                delay_ms
 .text.__libc_init_array
                0x08000724       0x48 e:/david/documents/megasync/trabajo/stm/.dspboardsdk/gcc/bin/../lib/gcc/arm-none-eabi/10.3.1/../../../../arm-none-eabi/lib/thumb/v7e-m+fp/hard\libc_nano.a(lib_a-init.o)
                0x08000724                __libc_init_array
 *(.glue_7)
 .glue_7        0x0800076c        0x0 linker stubs
 *(.glue_7t)
 .glue_7t       0x0800076c        0x0 linker stubs
 *(.eh_frame)
 .eh_frame      0x0800076c        0x0 e:/david/documents/megasync/trabajo/stm/.dspboardsdk/gcc/bin/../lib/gcc/arm-none-eabi/10.3.1/thumb/v7e-m+fp/hard/crtbegin.o
 *(.init)
 .init          0x0800076c        0x4 e:/david/documents/megasync/trabajo/stm/.dspboardsdk/gcc/bin/../lib/gcc/arm-none-eabi/10.3.1/thumb/v7e-m+fp/hard/crti.o
                0x0800076c                _init
 .init          0x08000770        0x8 e:/david/documents/megasync/trabajo/stm/.dspboardsdk/gcc/bin/../lib/gcc/arm-none-eabi/10.3.1/thumb/v7e-m+fp/hard/crtn.o
 *(.fini)
 .fini          0x08000778        0x4 e:/david/documents/megasync/trabajo/stm/.dspboardsdk/gcc/bin/../lib/gcc/arm-none-eabi/10.3.1/thumb/v7e-m+fp/hard/crti.o
                0x08000778                _fini
 .fini          0x0800077c        0x8 e:/david/documents/megasync/trabajo/stm/.dspboardsdk/gcc/bin/../lib/gcc/arm-none-eabi/10.3.1/thumb/v7e-m+fp/hard/crtn.o
                0x08000784                . = ALIGN (0x4)
                0x08000784                _etext = .

.vfp11_veneer   0x08000784        0x0
 .vfp11_veneer  0x08000784        0x0 linker stubs

.v4_bx          0x08000784        0x0
 .v4_bx         0x08000784        0x0 linker stubs

.iplt           0x08000784        0x0
 .iplt          0x08000784        0x0 e:/david/documents/megasync/trabajo/stm/.dspboardsdk/gcc/bin/../lib/gcc/arm-none-eabi/10.3.1/thumb/v7e-m+fp/hard/crtbegin.o

.rodata         0x08000784       0x24
                0x08000784                . = ALIGN (0x4)
 *(.rodata)
 .rodata        0x08000784       0x14 build/lib/Release\librcc.a(rcc.o)
 *(.rodata*)
 .rodata.AHBPrescTable
                0x08000798       0x10 build/Release/system_stm32f4xx.o
                0x08000798                AHBPrescTable
                0x080007a8                . = ALIGN (0x4)

.rel.dyn        0x080007a8        0x0
 .rel.iplt      0x080007a8        0x0 e:/david/documents/megasync/trabajo/stm/.dspboardsdk/gcc/bin/../lib/gcc/arm-none-eabi/10.3.1/thumb/v7e-m+fp/hard/crtbegin.o

.ARM.extab      0x080007a8        0x0
                0x080007a8                . = ALIGN (0x4)
 *(.ARM.extab* .gnu.linkonce.armextab.*)
                0x080007a8                . = ALIGN (0x4)

.ARM            0x080007a8        0x0
                0x080007a8                . = ALIGN (0x4)
                0x080007a8                __exidx_start = .
 *(.ARM.exidx*)
                0x080007a8                __exidx_end = .
                0x080007a8                . = ALIGN (0x4)

.preinit_array  0x080007a8        0x0
                0x080007a8                . = ALIGN (0x4)
                0x080007a8                PROVIDE (__preinit_array_start = .)
 *(.preinit_array*)
                0x080007a8                PROVIDE (__preinit_array_end = .)
                0x080007a8                . = ALIGN (0x4)

.init_array     0x080007a8        0x4
                0x080007a8                . = ALIGN (0x4)
                0x080007a8                PROVIDE (__init_array_start = .)
 *(SORT_BY_NAME(.init_array.*))
 *(.init_array*)
 .init_array    0x080007a8        0x4 e:/david/documents/megasync/trabajo/stm/.dspboardsdk/gcc/bin/../lib/gcc/arm-none-eabi/10.3.1/thumb/v7e-m+fp/hard/crtbegin.o
                0x080007ac                PROVIDE (__init_array_end = .)
                0x080007ac                . = ALIGN (0x4)

.fini_array     0x080007ac        0x4
                0x080007ac                . = ALIGN (0x4)
                [!provide]                PROVIDE (__fini_array_start = .)
 *(SORT_BY_NAME(.fini_array.*))
 *(.fini_array*)
 .fini_array    0x080007ac        0x4 e:/david/documents/megasync/trabajo/stm/.dspboardsdk/gcc/bin/../lib/gcc/arm-none-eabi/10.3.1/thumb/v7e-m+fp/hard/crtbegin.o
                [!provide]                PROVIDE (__fini_array_end = .)
                0x080007b0                . = ALIGN (0x4)
                0x080007b0                _sidata = LOADADDR (.data)

.data           0x20000000        0x8 load address 0x080007b0
                0x20000000                . = ALIGN (0x4)
                0x20000000                _sdata = .
 *(.data)
 *(.data*)
 .data.SystemCoreClock
                0x20000000        0x4 build/Release/system_stm32f4xx.o
                0x20000000                SystemCoreClock
 .data.system_clk
                0x20000004        0x4 build/lib/Release\librcc.a(rcc.o)
                0x20000004                system_clk
 *(.ramFunc)
 *(.ramFunc*)
                0x20000008                . = ALIGN (0x4)
                0x20000008                _edata = .

.igot.plt       0x20000008        0x0 load address 0x080007b8
 .igot.plt      0x20000008        0x0 e:/david/documents/megasync/trabajo/stm/.dspboardsdk/gcc/bin/../lib/gcc/arm-none-eabi/10.3.1/thumb/v7e-m+fp/hard/crtbegin.o
                0x20000008                . = ALIGN (0x4)

.bss            0x20000008       0x30 load address 0x080007b8
                0x20000008                _sbss = .
                0x20000008                __bss_start__ = _sbss
 *(.bss)
 .bss           0x20000008       0x1c e:/david/documents/megasync/trabajo/stm/.dspboardsdk/gcc/bin/../lib/gcc/arm-none-eabi/10.3.1/thumb/v7e-m+fp/hard/crtbegin.o
 *(.bss*)
 .bss.pll_parameters
                0x20000024        0xc build/lib/Release\librcc.a(rcc.o)
 .bss.DELAY_CYCLES_MS
                0x20000030        0x4 build/lib/Release\libdelay.a(delay.o)
 .bss.DELAY_CYCLES_US
                0x20000034        0x4 build/lib/Release\libdelay.a(delay.o)
                0x20000034                DELAY_CYCLES_US
 *(COMMON)
                0x20000038                . = ALIGN (0x4)
                0x20000038                _ebss = .
                0x20000038                __bss_end__ = _ebss

._user_heap_stack
                0x20000038      0x400 load address 0x080007b8
                0x20000038                . = ALIGN (0x8)
                [!provide]                PROVIDE (end = .)
                [!provide]                PROVIDE (_end = .)
                0x20000038                . = (. + _Min_Heap_Size)
                0x20000438                . = (. + _Min_Stack_Size)
 *fill*         0x20000038      0x400 
                0x20000438                . = ALIGN (0x8)
                0x080007b8                _siccmdata = LOADADDR (.ccmdata)

.ccmdata        0x10000000        0x0 load address 0x080007b8
                0x10000000                . = ALIGN (0x4)
                0x10000000                _sccmdata = .
 *(.ccmdata)
 *(.ccmdata*)
                0x10000000                . = ALIGN (0x4)
                0x10000000                _eccmdata = .
                0x10000000                . = ALIGN (0x4)

.ccmbss         0x10000000        0x0 load address 0x080007b8
                0x10000000                _sccmbss = .
 *(.ccmbss)
 *(.ccmbss*)
                0x10000000                . = ALIGN (0x4)
                0x10000000                _eccmbss = .

.bram           0x40024000        0x0
                0x40024000                . = ALIGN (0x4)
                0x40024000                _sbram = .
 *(.bram)
 *(.bram*)
                0x40024000                . = ALIGN (0x4)
                0x40024000                _ebram = .

/DISCARD/
 libc.a(*)
 libm.a(*)
 libgcc.a(*)

.ARM.attributes
                0x00000000       0x30
 *(.ARM.attributes)
 .ARM.attributes
                0x00000000       0x1e e:/david/documents/megasync/trabajo/stm/.dspboardsdk/gcc/bin/../lib/gcc/arm-none-eabi/10.3.1/thumb/v7e-m+fp/hard/crti.o
 .ARM.attributes
                0x0000001e       0x34 e:/david/documents/megasync/trabajo/stm/.dspboardsdk/gcc/bin/../lib/gcc/arm-none-eabi/10.3.1/thumb/v7e-m+fp/hard/crtbegin.o
 .ARM.attributes
                0x00000052       0x34 build/Release/system_stm32f4xx.o
 .ARM.attributes
                0x00000086       0x34 build/Release/main.o
 .ARM.attributes
                0x000000ba       0x21 build/Release/startup_stm32f407xx.o
 .ARM.attributes
                0x000000db       0x34 build/lib/Release\librcc.a(rcc.o)
 .ARM.attributes
                0x0000010f       0x34 build/lib/Release\libflash.a(flash.o)
 .ARM.attributes
                0x00000143       0x34 build/lib/Release\libdelay.a(delay.o)
 .ARM.attributes
                0x00000177       0x34 e:/david/documents/megasync/trabajo/stm/.dspboardsdk/gcc/bin/../lib/gcc/arm-none-eabi/10.3.1/../../../../arm-none-eabi/lib/thumb/v7e-m+fp/hard\libc_nano.a(lib_a-init.o)
 .ARM.attributes
                0x000001ab       0x1e e:/david/documents/megasync/trabajo/stm/.dspboardsdk/gcc/bin/../lib/gcc/arm-none-eabi/10.3.1/thumb/v7e-m+fp/hard/crtn.o
OUTPUT(output/Release/test.elf elf32-littlearm)
LOAD linker stubs
LOAD e:/david/documents/megasync/trabajo/stm/.dspboardsdk/gcc/bin/../lib/gcc/arm-none-eabi/10.3.1/../../../../arm-none-eabi/lib/thumb/v7e-m+fp/hard\libc.a
LOAD e:/david/documents/megasync/trabajo/stm/.dspboardsdk/gcc/bin/../lib/gcc/arm-none-eabi/10.3.1/../../../../arm-none-eabi/lib/thumb/v7e-m+fp/hard\libm.a
LOAD e:/david/documents/megasync/trabajo/stm/.dspboardsdk/gcc/bin/../lib/gcc/arm-none-eabi/10.3.1/thumb/v7e-m+fp/hard\libgcc.a

.debug_info     0x00000000     0x14d9
 .debug_info    0x00000000      0x531 build/Release/system_stm32f4xx.o
 .debug_info    0x00000531      0x684 build/Release/main.o
 .debug_info    0x00000bb5      0x576 build/lib/Release\librcc.a(rcc.o)
 .debug_info    0x0000112b      0x28c build/lib/Release\libflash.a(flash.o)
 .debug_info    0x000013b7      0x122 build/lib/Release\libdelay.a(delay.o)

.debug_abbrev   0x00000000      0x6cc
 .debug_abbrev  0x00000000      0x119 build/Release/system_stm32f4xx.o
 .debug_abbrev  0x00000119      0x179 build/Release/main.o
 .debug_abbrev  0x00000292      0x223 build/lib/Release\librcc.a(rcc.o)
 .debug_abbrev  0x000004b5      0x142 build/lib/Release\libflash.a(flash.o)
 .debug_abbrev  0x000005f7       0xd5 build/lib/Release\libdelay.a(delay.o)

.debug_loc      0x00000000      0x4d4
 .debug_loc     0x00000000      0x118 build/Release/system_stm32f4xx.o
 .debug_loc     0x00000118       0xc9 build/Release/main.o
 .debug_loc     0x000001e1      0x21d build/lib/Release\librcc.a(rcc.o)
 .debug_loc     0x000003fe       0x90 build/lib/Release\libflash.a(flash.o)
 .debug_loc     0x0000048e       0x46 build/lib/Release\libdelay.a(delay.o)

.debug_aranges  0x00000000       0xc8
 .debug_aranges
                0x00000000       0x28 build/Release/system_stm32f4xx.o
 .debug_aranges
                0x00000028       0x20 build/Release/main.o
 .debug_aranges
                0x00000048       0x38 build/lib/Release\librcc.a(rcc.o)
 .debug_aranges
                0x00000080       0x20 build/lib/Release\libflash.a(flash.o)
 .debug_aranges
                0x000000a0       0x28 build/lib/Release\libdelay.a(delay.o)

.debug_ranges   0x00000000       0xe0
 .debug_ranges  0x00000000       0x18 build/Release/system_stm32f4xx.o
 .debug_ranges  0x00000018       0x10 build/Release/main.o
 .debug_ranges  0x00000028       0x58 build/lib/Release\librcc.a(rcc.o)
 .debug_ranges  0x00000080       0x30 build/lib/Release\libflash.a(flash.o)
 .debug_ranges  0x000000b0       0x30 build/lib/Release\libdelay.a(delay.o)

.debug_line     0x00000000      0xf94
 .debug_line    0x00000000      0x2b7 build/Release/system_stm32f4xx.o
 .debug_line    0x000002b7      0x299 build/Release/main.o
 .debug_line    0x00000550      0x536 build/lib/Release\librcc.a(rcc.o)
 .debug_line    0x00000a86      0x2f9 build/lib/Release\libflash.a(flash.o)
 .debug_line    0x00000d7f      0x215 build/lib/Release\libdelay.a(delay.o)

.debug_str      0x00000000      0x948
 .debug_str     0x00000000      0x328 build/Release/system_stm32f4xx.o
                                0x372 (size before relaxing)
 .debug_str     0x00000328      0x291 build/Release/main.o
                                0x536 (size before relaxing)
 .debug_str     0x000005b9      0x126 build/lib/Release\librcc.a(rcc.o)
                                0x489 (size before relaxing)
 .debug_str     0x000006df      0x1db build/lib/Release\libflash.a(flash.o)
                                0x338 (size before relaxing)
 .debug_str     0x000008ba       0x8e build/lib/Release\libdelay.a(delay.o)
                                0x1fc (size before relaxing)

.comment        0x00000000       0x49
 .comment       0x00000000       0x49 build/Release/system_stm32f4xx.o
                                 0x4a (size before relaxing)
 .comment       0x00000049       0x4a build/Release/main.o
 .comment       0x00000049       0x4a build/lib/Release\librcc.a(rcc.o)
 .comment       0x00000049       0x4a build/lib/Release\libflash.a(flash.o)
 .comment       0x00000049       0x4a build/lib/Release\libdelay.a(delay.o)

.debug_frame    0x00000000      0x16c
 .debug_frame   0x00000000       0x30 build/Release/system_stm32f4xx.o
 .debug_frame   0x00000030       0x28 build/Release/main.o
 .debug_frame   0x00000058       0x8c build/lib/Release\librcc.a(rcc.o)
 .debug_frame   0x000000e4       0x20 build/lib/Release\libflash.a(flash.o)
 .debug_frame   0x00000104       0x3c build/lib/Release\libdelay.a(delay.o)
 .debug_frame   0x00000140       0x2c e:/david/documents/megasync/trabajo/stm/.dspboardsdk/gcc/bin/../lib/gcc/arm-none-eabi/10.3.1/../../../../arm-none-eabi/lib/thumb/v7e-m+fp/hard\libc_nano.a(lib_a-init.o)

Cross Reference Table

Symbol                                            File
ADC_IRQHandler                                    build/Release/startup_stm32f407xx.o
AHBPrescTable                                     build/Release/system_stm32f4xx.o
APBPrescTable                                     build/Release/system_stm32f4xx.o
BusFault_Handler                                  build/Release/startup_stm32f407xx.o
CAN1_RX0_IRQHandler                               build/Release/startup_stm32f407xx.o
CAN1_RX1_IRQHandler                               build/Release/startup_stm32f407xx.o
CAN1_SCE_IRQHandler                               build/Release/startup_stm32f407xx.o
CAN1_TX_IRQHandler                                build/Release/startup_stm32f407xx.o
CAN2_RX0_IRQHandler                               build/Release/startup_stm32f407xx.o
CAN2_RX1_IRQHandler                               build/Release/startup_stm32f407xx.o
CAN2_SCE_IRQHandler                               build/Release/startup_stm32f407xx.o
CAN2_TX_IRQHandler                                build/Release/startup_stm32f407xx.o
CRYP_IRQHandler                                   build/Release/startup_stm32f407xx.o
DCMI_IRQHandler                                   build/Release/startup_stm32f407xx.o
DELAY_CYCLES_US                                   build/lib/Release\libdelay.a(delay.o)
DMA1_Stream0_IRQHandler                           build/Release/startup_stm32f407xx.o
DMA1_Stream1_IRQHandler                           build/Release/startup_stm32f407xx.o
DMA1_Stream2_IRQHandler                           build/Release/startup_stm32f407xx.o
DMA1_Stream3_IRQHandler                           build/Release/startup_stm32f407xx.o
DMA1_Stream4_IRQHandler                           build/Release/startup_stm32f407xx.o
DMA1_Stream5_IRQHandler                           build/Release/startup_stm32f407xx.o
DMA1_Stream6_IRQHandler                           build/Release/startup_stm32f407xx.o
DMA1_Stream7_IRQHandler                           build/Release/startup_stm32f407xx.o
DMA2_Stream0_IRQHandler                           build/Release/startup_stm32f407xx.o
DMA2_Stream1_IRQHandler                           build/Release/startup_stm32f407xx.o
DMA2_Stream2_IRQHandler                           build/Release/startup_stm32f407xx.o
DMA2_Stream3_IRQHandler                           build/Release/startup_stm32f407xx.o
DMA2_Stream4_IRQHandler                           build/Release/startup_stm32f407xx.o
DMA2_Stream5_IRQHandler                           build/Release/startup_stm32f407xx.o
DMA2_Stream6_IRQHandler                           build/Release/startup_stm32f407xx.o
DMA2_Stream7_IRQHandler                           build/Release/startup_stm32f407xx.o
DebugMon_Handler                                  build/Release/startup_stm32f407xx.o
Default_Handler                                   build/Release/startup_stm32f407xx.o
ETH_IRQHandler                                    build/Release/startup_stm32f407xx.o
ETH_WKUP_IRQHandler                               build/Release/startup_stm32f407xx.o
EXTI0_IRQHandler                                  build/Release/startup_stm32f407xx.o
EXTI15_10_IRQHandler                              build/Release/startup_stm32f407xx.o
EXTI1_IRQHandler                                  build/Release/startup_stm32f407xx.o
EXTI2_IRQHandler                                  build/Release/startup_stm32f407xx.o
EXTI3_IRQHandler                                  build/Release/startup_stm32f407xx.o
EXTI4_IRQHandler                                  build/Release/startup_stm32f407xx.o
EXTI9_5_IRQHandler                                build/Release/startup_stm32f407xx.o
FPU_IRQHandler                                    build/Release/startup_stm32f407xx.o
FSMC_IRQHandler                                   build/Release/startup_stm32f407xx.o
HASH_RNG_IRQHandler                               build/Release/startup_stm32f407xx.o
HardFault_Handler                                 build/Release/startup_stm32f407xx.o
I2C1_ER_IRQHandler                                build/Release/startup_stm32f407xx.o
I2C1_EV_IRQHandler                                build/Release/startup_stm32f407xx.o
I2C2_ER_IRQHandler                                build/Release/startup_stm32f407xx.o
I2C2_EV_IRQHandler                                build/Release/startup_stm32f407xx.o
I2C3_ER_IRQHandler                                build/Release/startup_stm32f407xx.o
I2C3_EV_IRQHandler                                build/Release/startup_stm32f407xx.o
LCD_TFT_1_IRQHandler                              build/Release/startup_stm32f407xx.o
LCD_TFT_IRQHandler                                build/Release/startup_stm32f407xx.o
MemManage_Handler                                 build/Release/startup_stm32f407xx.o
NMI_Handler                                       build/Release/startup_stm32f407xx.o
OTG_FS_IRQHandler                                 build/Release/startup_stm32f407xx.o
OTG_FS_WKUP_IRQHandler                            build/Release/startup_stm32f407xx.o
OTG_HS_EP1_IN_IRQHandler                          build/Release/startup_stm32f407xx.o
OTG_HS_EP1_OUT_IRQHandler                         build/Release/startup_stm32f407xx.o
OTG_HS_IRQHandler                                 build/Release/startup_stm32f407xx.o
OTG_HS_WKUP_IRQHandler                            build/Release/startup_stm32f407xx.o
PVD_IRQHandler                                    build/Release/startup_stm32f407xx.o
PendSV_Handler                                    build/Release/startup_stm32f407xx.o
RCC_IRQHandler                                    build/Release/startup_stm32f407xx.o
RTC_Alarm_IRQHandler                              build/Release/startup_stm32f407xx.o
RTC_WKUP_IRQHandler                               build/Release/startup_stm32f407xx.o
Reset_Handler                                     build/Release/startup_stm32f407xx.o
SDIO_IRQHandler                                   build/Release/startup_stm32f407xx.o
SPI1_IRQHandler                                   build/Release/startup_stm32f407xx.o
SPI2_IRQHandler                                   build/Release/startup_stm32f407xx.o
SPI3_IRQHandler                                   build/Release/startup_stm32f407xx.o
SVC_Handler                                       build/Release/startup_stm32f407xx.o
SysTick_Handler                                   build/Release/startup_stm32f407xx.o
SystemCoreClock                                   build/Release/system_stm32f4xx.o
                                                  build/lib/Release\libdelay.a(delay.o)
                                                  build/lib/Release\librcc.a(rcc.o)
SystemCoreClockUpdate                             build/Release/system_stm32f4xx.o
                                                  build/lib/Release\librcc.a(rcc.o)
SystemInit                                        build/Release/system_stm32f4xx.o
                                                  build/Release/startup_stm32f407xx.o
TAMP_STAMP_IRQHandler                             build/Release/startup_stm32f407xx.o
TIM1_BRK_TIM9_IRQHandler                          build/Release/startup_stm32f407xx.o
TIM1_CC_IRQHandler                                build/Release/startup_stm32f407xx.o
TIM1_TRG_COM_TIM11_IRQHandler                     build/Release/startup_stm32f407xx.o
TIM1_UP_TIM10_IRQHandler                          build/Release/startup_stm32f407xx.o
TIM2_IRQHandler                                   build/Release/startup_stm32f407xx.o
TIM3_IRQHandler                                   build/Release/startup_stm32f407xx.o
TIM4_IRQHandler                                   build/Release/startup_stm32f407xx.o
TIM5_IRQHandler                                   build/Release/startup_stm32f407xx.o
TIM6_DAC_IRQHandler                               build/Release/startup_stm32f407xx.o
TIM7_IRQHandler                                   build/Release/startup_stm32f407xx.o
TIM8_BRK_TIM12_IRQHandler                         build/Release/startup_stm32f407xx.o
TIM8_CC_IRQHandler                                build/Release/startup_stm32f407xx.o
TIM8_TRG_COM_TIM14_IRQHandler                     build/Release/startup_stm32f407xx.o
TIM8_UP_TIM13_IRQHandler                          build/Release/startup_stm32f407xx.o
UART4_IRQHandler                                  build/Release/startup_stm32f407xx.o
UART5_IRQHandler                                  build/Release/startup_stm32f407xx.o
USART1_IRQHandler                                 build/Release/startup_stm32f407xx.o
USART2_IRQHandler                                 build/Release/startup_stm32f407xx.o
USART3_IRQHandler                                 build/Release/startup_stm32f407xx.o
USART6_IRQHandler                                 build/Release/startup_stm32f407xx.o
UsageFault_Handler                                build/Release/startup_stm32f407xx.o
WWDG_IRQHandler                                   build/Release/startup_stm32f407xx.o
__bss_end__                                       e:/david/documents/megasync/trabajo/stm/.dspboardsdk/gcc/bin/../lib/gcc/arm-none-eabi/10.3.1/../../../../arm-none-eabi/lib/thumb/v7e-m+fp/hard/crt0.o
__bss_start__                                     e:/david/documents/megasync/trabajo/stm/.dspboardsdk/gcc/bin/../lib/gcc/arm-none-eabi/10.3.1/../../../../arm-none-eabi/lib/thumb/v7e-m+fp/hard/crt0.o
__call_exitprocs                                  e:/david/documents/megasync/trabajo/stm/.dspboardsdk/gcc/bin/../lib/gcc/arm-none-eabi/10.3.1/../../../../arm-none-eabi/lib/thumb/v7e-m+fp/hard\libc_nano.a(lib_a-exit.o)
__deregister_frame_info                           e:/david/documents/megasync/trabajo/stm/.dspboardsdk/gcc/bin/../lib/gcc/arm-none-eabi/10.3.1/thumb/v7e-m+fp/hard/crtbegin.o
__dso_handle                                      e:/david/documents/megasync/trabajo/stm/.dspboardsdk/gcc/bin/../lib/gcc/arm-none-eabi/10.3.1/thumb/v7e-m+fp/hard/crtbegin.o
__init_array_end                                  e:/david/documents/megasync/trabajo/stm/.dspboardsdk/gcc/bin/../lib/gcc/arm-none-eabi/10.3.1/../../../../arm-none-eabi/lib/thumb/v7e-m+fp/hard\libc_nano.a(lib_a-init.o)
__init_array_start                                e:/david/documents/megasync/trabajo/stm/.dspboardsdk/gcc/bin/../lib/gcc/arm-none-eabi/10.3.1/../../../../arm-none-eabi/lib/thumb/v7e-m+fp/hard\libc_nano.a(lib_a-init.o)
__libc_fini_array                                 e:/david/documents/megasync/trabajo/stm/.dspboardsdk/gcc/bin/../lib/gcc/arm-none-eabi/10.3.1/../../../../arm-none-eabi/lib/thumb/v7e-m+fp/hard/crt0.o
__libc_init_array                                 e:/david/documents/megasync/trabajo/stm/.dspboardsdk/gcc/bin/../lib/gcc/arm-none-eabi/10.3.1/../../../../arm-none-eabi/lib/thumb/v7e-m+fp/hard\libc_nano.a(lib_a-init.o)
                                                  build/Release/startup_stm32f407xx.o
                                                  e:/david/documents/megasync/trabajo/stm/.dspboardsdk/gcc/bin/../lib/gcc/arm-none-eabi/10.3.1/../../../../arm-none-eabi/lib/thumb/v7e-m+fp/hard/crt0.o
__preinit_array_end                               e:/david/documents/megasync/trabajo/stm/.dspboardsdk/gcc/bin/../lib/gcc/arm-none-eabi/10.3.1/../../../../arm-none-eabi/lib/thumb/v7e-m+fp/hard\libc_nano.a(lib_a-init.o)
__preinit_array_start                             e:/david/documents/megasync/trabajo/stm/.dspboardsdk/gcc/bin/../lib/gcc/arm-none-eabi/10.3.1/../../../../arm-none-eabi/lib/thumb/v7e-m+fp/hard\libc_nano.a(lib_a-init.o)
__register_frame_info                             e:/david/documents/megasync/trabajo/stm/.dspboardsdk/gcc/bin/../lib/gcc/arm-none-eabi/10.3.1/thumb/v7e-m+fp/hard/crtbegin.o
__sf_fake_stderr                                  e:/david/documents/megasync/trabajo/stm/.dspboardsdk/gcc/bin/../lib/gcc/arm-none-eabi/10.3.1/../../../../arm-none-eabi/lib/thumb/v7e-m+fp/hard\libc_nano.a(lib_a-impure.o)
__sf_fake_stdin                                   e:/david/documents/megasync/trabajo/stm/.dspboardsdk/gcc/bin/../lib/gcc/arm-none-eabi/10.3.1/../../../../arm-none-eabi/lib/thumb/v7e-m+fp/hard\libc_nano.a(lib_a-impure.o)
__sf_fake_stdout                                  e:/david/documents/megasync/trabajo/stm/.dspboardsdk/gcc/bin/../lib/gcc/arm-none-eabi/10.3.1/../../../../arm-none-eabi/lib/thumb/v7e-m+fp/hard\libc_nano.a(lib_a-impure.o)
__stack                                           e:/david/documents/megasync/trabajo/stm/.dspboardsdk/gcc/bin/../lib/gcc/arm-none-eabi/10.3.1/../../../../arm-none-eabi/lib/thumb/v7e-m+fp/hard/crt0.o
_ebss                                             build/Release/startup_stm32f407xx.o
_eccmbbs                                          build/Release/startup_stm32f407xx.o
_eccmbss                                          build/Release/startup_stm32f407xx.o
_eccmdata                                         build/Release/startup_stm32f407xx.o
_edata                                            build/Release/startup_stm32f407xx.o
_estack                                           build/Release/startup_stm32f407xx.o
_exit                                             e:/david/documents/megasync/trabajo/stm/.dspboardsdk/gcc/bin/../lib/gcc/arm-none-eabi/10.3.1/../../../../arm-none-eabi/lib/thumb/v7e-m+fp/hard\libnosys.a(_exit.o)
                                                  e:/david/documents/megasync/trabajo/stm/.dspboardsdk/gcc/bin/../lib/gcc/arm-none-eabi/10.3.1/../../../../arm-none-eabi/lib/thumb/v7e-m+fp/hard\libc_nano.a(lib_a-exit.o)
_fini                                             e:/david/documents/megasync/trabajo/stm/.dspboardsdk/gcc/bin/../lib/gcc/arm-none-eabi/10.3.1/thumb/v7e-m+fp/hard/crti.o
_global_impure_ptr                                e:/david/documents/megasync/trabajo/stm/.dspboardsdk/gcc/bin/../lib/gcc/arm-none-eabi/10.3.1/../../../../arm-none-eabi/lib/thumb/v7e-m+fp/hard\libc_nano.a(lib_a-impure.o)
                                                  e:/david/documents/megasync/trabajo/stm/.dspboardsdk/gcc/bin/../lib/gcc/arm-none-eabi/10.3.1/../../../../arm-none-eabi/lib/thumb/v7e-m+fp/hard\libc_nano.a(lib_a-exit.o)
_impure_ptr                                       e:/david/documents/megasync/trabajo/stm/.dspboardsdk/gcc/bin/../lib/gcc/arm-none-eabi/10.3.1/../../../../arm-none-eabi/lib/thumb/v7e-m+fp/hard\libc_nano.a(lib_a-impure.o)
_init                                             e:/david/documents/megasync/trabajo/stm/.dspboardsdk/gcc/bin/../lib/gcc/arm-none-eabi/10.3.1/thumb/v7e-m+fp/hard/crti.o
                                                  e:/david/documents/megasync/trabajo/stm/.dspboardsdk/gcc/bin/../lib/gcc/arm-none-eabi/10.3.1/../../../../arm-none-eabi/lib/thumb/v7e-m+fp/hard\libc_nano.a(lib_a-init.o)
_mainCRTStartup                                   e:/david/documents/megasync/trabajo/stm/.dspboardsdk/gcc/bin/../lib/gcc/arm-none-eabi/10.3.1/../../../../arm-none-eabi/lib/thumb/v7e-m+fp/hard/crt0.o
_sbss                                             build/Release/startup_stm32f407xx.o
_sccmbbs                                          build/Release/startup_stm32f407xx.o
_sccmbss                                          build/Release/startup_stm32f407xx.o
_sccmdata                                         build/Release/startup_stm32f407xx.o
_sdata                                            build/Release/startup_stm32f407xx.o
_siccmdata                                        build/Release/startup_stm32f407xx.o
_sidata                                           build/Release/startup_stm32f407xx.o
_stack_init                                       e:/david/documents/megasync/trabajo/stm/.dspboardsdk/gcc/bin/../lib/gcc/arm-none-eabi/10.3.1/../../../../arm-none-eabi/lib/thumb/v7e-m+fp/hard/crt0.o
_start                                            e:/david/documents/megasync/trabajo/stm/.dspboardsdk/gcc/bin/../lib/gcc/arm-none-eabi/10.3.1/../../../../arm-none-eabi/lib/thumb/v7e-m+fp/hard/crt0.o
atexit                                            e:/david/documents/megasync/trabajo/stm/.dspboardsdk/gcc/bin/../lib/gcc/arm-none-eabi/10.3.1/../../../../arm-none-eabi/lib/thumb/v7e-m+fp/hard/crt0.o
delay_init                                        build/lib/Release\libdelay.a(delay.o)
                                                  build/lib/Release\librcc.a(rcc.o)
delay_ms                                          build/lib/Release\libdelay.a(delay.o)
                                                  build/Release/main.o
exit                                              e:/david/documents/megasync/trabajo/stm/.dspboardsdk/gcc/bin/../lib/gcc/arm-none-eabi/10.3.1/../../../../arm-none-eabi/lib/thumb/v7e-m+fp/hard\libc_nano.a(lib_a-exit.o)
                                                  e:/david/documents/megasync/trabajo/stm/.dspboardsdk/gcc/bin/../lib/gcc/arm-none-eabi/10.3.1/../../../../arm-none-eabi/lib/thumb/v7e-m+fp/hard/crt0.o
flash_acr_config_auto                             build/lib/Release\libflash.a(flash.o)
                                                  build/lib/Release\librcc.a(rcc.o)
g_pfnVectors                                      build/Release/startup_stm32f407xx.o
hardware_init_hook                                e:/david/documents/megasync/trabajo/stm/.dspboardsdk/gcc/bin/../lib/gcc/arm-none-eabi/10.3.1/../../../../arm-none-eabi/lib/thumb/v7e-m+fp/hard/crt0.o
main                                              build/Release/main.o
                                                  build/Release/startup_stm32f407xx.o
                                                  e:/david/documents/megasync/trabajo/stm/.dspboardsdk/gcc/bin/../lib/gcc/arm-none-eabi/10.3.1/../../../../arm-none-eabi/lib/thumb/v7e-m+fp/hard/crt0.o
memset                                            e:/david/documents/megasync/trabajo/stm/.dspboardsdk/gcc/bin/../lib/gcc/arm-none-eabi/10.3.1/../../../../arm-none-eabi/lib/thumb/v7e-m+fp/hard\libc_nano.a(lib_a-memset.o)
                                                  e:/david/documents/megasync/trabajo/stm/.dspboardsdk/gcc/bin/../lib/gcc/arm-none-eabi/10.3.1/../../../../arm-none-eabi/lib/thumb/v7e-m+fp/hard/crt0.o
rcc_pll_param_clr                                 build/lib/Release\librcc.a(rcc.o)
                                                  build/Release/main.o
rcc_pll_param_cpte                                build/lib/Release\librcc.a(rcc.o)
                                                  build/Release/main.o
rcc_pll_param_set                                 build/lib/Release\librcc.a(rcc.o)
                                                  build/Release/main.o
rcc_sysclk_select                                 build/lib/Release\librcc.a(rcc.o)
                                                  build/Release/main.o
software_init_hook                                e:/david/documents/megasync/trabajo/stm/.dspboardsdk/gcc/bin/../lib/gcc/arm-none-eabi/10.3.1/../../../../arm-none-eabi/lib/thumb/v7e-m+fp/hard/crt0.o
system_clk                                        build/lib/Release\librcc.a(rcc.o)
